; Function Attrs: mustprogress uwtable
define void @_ZN4cvc58internal7Printer11makePrinterENS0_8LanguageE(ptr noalias nocapture writeonly sret(%"class.std::unique_ptr") align 8 %agg.result, i32 noundef %lang) local_unnamed_addr #4 align 2 personality ptr @__gxx_personality_v0 {
entry:
  %ref.tmp = alloca %"class.cvc5::internal::FatalStream", align 1
  switch i32 %lang, label %sw.default [
    i32 0, label %invoke.cont
    i32 1, label %invoke.cont4
    i32 2, label %sw.bb5
  ]

invoke.cont:                                      ; preds = %entry
  %call = tail call noalias noundef nonnull dereferenceable(16) ptr @_Znwm(i64 noundef 16) #17
  store ptr getelementptr inbounds ({ [71 x ptr] }, ptr @_ZTVN4cvc58internal7printer4smt211Smt2PrinterE, i64 0, i32 0, i64 2), ptr %call, align 8
  %d_variant.i = getelementptr inbounds i8, ptr %call, i64 8
  store i32 1, ptr %d_variant.i, align 8
  br label %return

invoke.cont4:                                     ; preds = %entry
  %call2 = tail call noalias noundef nonnull dereferenceable(16) ptr @_Znwm(i64 noundef 16) #17
  store ptr getelementptr inbounds ({ [71 x ptr] }, ptr @_ZTVN4cvc58internal7printer4smt211Smt2PrinterE, i64 0, i32 0, i64 2), ptr %call2, align 8
  %d_variant.i3 = getelementptr inbounds i8, ptr %call2, i64 8
  store i32 1, ptr %d_variant.i3, align 8
  br label %return

sw.bb5:                                           ; preds = %entry
  %call6 = tail call noalias noundef nonnull dereferenceable(8) ptr @_Znwm(i64 noundef 8) #17
  store ptr getelementptr inbounds ({ [71 x ptr] }, ptr @_ZTVN4cvc58internal7printer3ast10AstPrinterE, i64 0, i32 0, i64 2), ptr %call6, align 8
  br label %return

sw.default:                                       ; preds = %entry
  call void @_ZN4cvc58internal11FatalStreamC1EPKcS3_i(ptr noundef nonnull align 1 dereferenceable(1) %ref.tmp, ptr noundef nonnull @__PRETTY_FUNCTION__._ZN4cvc58internal7Printer11makePrinterENS0_8LanguageE, ptr noundef nonnull @.str, i32 noundef 54)
  %call11 = invoke noundef nonnull align 8 dereferenceable(8) ptr @_ZN4cvc58internal11FatalStream6streamEv(ptr noundef nonnull align 1 dereferenceable(1) %ref.tmp)
          to label %invoke.cont10 unwind label %lpad9

invoke.cont10:                                    ; preds = %sw.default
  %call13 = invoke noundef nonnull align 8 dereferenceable(8) ptr @_ZStlsISt11char_traitsIcEERSt13basic_ostreamIcT_ES5_PKc(ptr noundef nonnull align 8 dereferenceable(8) %call11, ptr noundef nonnull @.str.2)
          to label %invoke.cont12 unwind label %lpad9

invoke.cont12:                                    ; preds = %invoke.cont10
  %call15 = invoke noundef nonnull align 8 dereferenceable(8) ptr @_ZN4cvc58internallsERSoNS0_8LanguageE(ptr noundef nonnull align 8 dereferenceable(8) %call13, i32 noundef %lang)
          to label %invoke.cont14 unwind label %lpad9

invoke.cont14:                                    ; preds = %invoke.cont12
  call void @_ZN4cvc58internal11FatalStreamD1Ev(ptr noundef nonnull align 1 dereferenceable(1) %ref.tmp) #18
  unreachable

lpad9:                                            ; preds = %invoke.cont12, %invoke.cont10, %sw.default
  %0 = landingpad { ptr, i32 }
          cleanup
  call void @_ZN4cvc58internal11FatalStreamD1Ev(ptr noundef nonnull align 1 dereferenceable(1) %ref.tmp) #18
  unreachable

return:                                           ; preds = %sw.bb5, %invoke.cont4, %invoke.cont
  %call6.sink = phi ptr [ %call6, %sw.bb5 ], [ %call2, %invoke.cont4 ], [ %call, %invoke.cont ]
  store ptr %call6.sink, ptr %agg.result, align 8
  ret void
}